target datalayout = "e-m:e-p270:32:32-p271:32:32-p272:64:64-i64:64-i128:128-f80:128-n8:16:32:64-S128"
target triple = "x86_64-pc-linux-gnu"

; Function Attrs: alwaysinline nounwind willreturn memory(none) uwtable
define internal signext i16 @av_clip_int16_c(i32 noundef %0) #2 {
  %2 = alloca i16, align 2
  %3 = alloca i32, align 4
  store i32 %0, ptr %3, align 4, !tbaa !11
  %4 = load i32, ptr %3, align 4, !tbaa !11
  %5 = add i32 %4, 32768
  %6 = and i32 %5, -65536
  %7 = icmp ne i32 %6, 0
  br i1 %7, label %8, label %13

8:                                                ; preds = %1
  %9 = load i32, ptr %3, align 4, !tbaa !11
  %10 = ashr i32 %9, 31
  %11 = xor i32 %10, 32767
  %12 = trunc i32 %11 to i16
  store i16 %12, ptr %2, align 2
  br label %16

13:                                               ; preds = %1
  %14 = load i32, ptr %3, align 4, !tbaa !11
  %15 = trunc i32 %14 to i16
  store i16 %15, ptr %2, align 2
  br label %16

16:                                               ; preds = %13, %8
  %17 = load i16, ptr %2, align 2
  ret i16 %17
}

; Function Attrs: nounwind uwtable
define void @ff_acelp_weighted_vector_sum(ptr noundef %0, ptr noundef %1, ptr noundef %2, i16 noundef signext %3, i16 noundef signext %4, i16 noundef signext %5, i32 noundef %6, i32 noundef %7) #0 {
  %9 = alloca ptr, align 8
  %10 = alloca ptr, align 8
  %11 = alloca ptr, align 8
  %12 = alloca i16, align 2
  %13 = alloca i16, align 2
  %14 = alloca i16, align 2
  %15 = alloca i32, align 4
  %16 = alloca i32, align 4
  %17 = alloca i32, align 4
  store ptr %0, ptr %9, align 8, !tbaa !4
  store ptr %1, ptr %10, align 8, !tbaa !4
  store ptr %2, ptr %11, align 8, !tbaa !4
  store i16 %3, ptr %12, align 2, !tbaa !14
  store i16 %4, ptr %13, align 2, !tbaa !14
  store i16 %5, ptr %14, align 2, !tbaa !14
  store i32 %6, ptr %15, align 4, !tbaa !11
  store i32 %7, ptr %16, align 4, !tbaa !11
  call void @llvm.lifetime.start.p0(i64 4, ptr %17) #6
  store i32 0, ptr %17, align 4, !tbaa !11
  br label %18

18:                                               ; preds = %52, %8
  %19 = load i32, ptr %17, align 4, !tbaa !11
  %20 = load i32, ptr %16, align 4, !tbaa !11
  %21 = icmp slt i32 %19, %20
  br i1 %21, label %22, label %55

22:                                               ; preds = %18
  %23 = load ptr, ptr %10, align 8, !tbaa !4
  %24 = load i32, ptr %17, align 4, !tbaa !11
  %25 = sext i32 %24 to i64
  %26 = getelementptr inbounds i16, ptr %23, i64 %25
  %27 = load i16, ptr %26, align 2, !tbaa !14
  %28 = sext i16 %27 to i32
  %29 = load i16, ptr %12, align 2, !tbaa !14
  %30 = sext i16 %29 to i32
  %31 = mul nsw i32 %28, %30
  %32 = load ptr, ptr %11, align 8, !tbaa !4
  %33 = load i32, ptr %17, align 4, !tbaa !11
  %34 = sext i32 %33 to i64
  %35 = getelementptr inbounds i16, ptr %32, i64 %34
  %36 = load i16, ptr %35, align 2, !tbaa !14
  %37 = sext i16 %36 to i32
  %38 = load i16, ptr %13, align 2, !tbaa !14
  %39 = sext i16 %38 to i32
  %40 = mul nsw i32 %37, %39
  %41 = add nsw i32 %31, %40
  %42 = load i16, ptr %14, align 2, !tbaa !14
  %43 = sext i16 %42 to i32
  %44 = add nsw i32 %41, %43
  %45 = load i32, ptr %15, align 4, !tbaa !11
  %46 = ashr i32 %44, %45
  %47 = call signext i16 @av_clip_int16_c(i32 noundef %46) #7
  %48 = load ptr, ptr %9, align 8, !tbaa !4
  %49 = load i32, ptr %17, align 4, !tbaa !11
  %50 = sext i32 %49 to i64
  %51 = getelementptr inbounds i16, ptr %48, i64 %50
  store i16 %47, ptr %51, align 2, !tbaa !14
  br label %52

52:                                               ; preds = %22
  %53 = load i32, ptr %17, align 4, !tbaa !11
  %54 = add nsw i32 %53, 1
  store i32 %54, ptr %17, align 4, !tbaa !11
  br label %18, !llvm.loop !26

55:                                               ; preds = %18
  call void @llvm.lifetime.end.p0(i64 4, ptr %17) #6
  ret void
}