; Function Attrs: nofree norecurse nosync nounwind memory(argmem: readwrite) uwtable
define void @ff_acelp_weighted_vector_sum(ptr noundef writeonly captures(none) %0, ptr noundef readonly captures(none) %1, ptr noundef readonly captures(none) %2, i16 noundef signext %3, i16 noundef signext %4, i16 noundef signext %5, i32 noundef %6, i32 noundef %7) local_unnamed_addr #0 {
  %9 = icmp sgt i32 %7, 0
  br i1 %9, label %.lr.ph, label %._crit_edge

.lr.ph:                                           ; preds = %8
  %10 = sext i16 %3 to i32
  %11 = sext i16 %4 to i32
  %12 = sext i16 %5 to i32
  %wide.trip.count = zext nneg i32 %7 to i64
  br label %13

13:                                               ; preds = %.lr.ph, %13
  %indvars.iv = phi i64 [ 0, %.lr.ph ], [ %indvars.iv.next, %13 ]
  %14 = getelementptr inbounds nuw i16, ptr %1, i64 %indvars.iv
  %15 = load i16, ptr %14, align 2, !tbaa !7
  %16 = sext i16 %15 to i32
  %17 = mul nsw i32 %16, %10
  %18 = getelementptr inbounds nuw i16, ptr %2, i64 %indvars.iv
  %19 = load i16, ptr %18, align 2, !tbaa !7
  %20 = sext i16 %19 to i32
  %21 = mul nsw i32 %20, %11
  %22 = add nsw i32 %17, %12
  %23 = add i32 %22, %21
  %24 = ashr i32 %23, %6
  %25 = tail call i32 @llvm.smax.i32(i32 %24, i32 -32768)
  %26 = tail call i32 @llvm.smin.i32(i32 %25, i32 32767)
  %.0.i = trunc nsw i32 %26 to i16
  %27 = getelementptr inbounds nuw i16, ptr %0, i64 %indvars.iv
  store i16 %.0.i, ptr %27, align 2, !tbaa !7
  %indvars.iv.next = add nuw nsw i64 %indvars.iv, 1
  %exitcond.not = icmp eq i64 %indvars.iv.next, %wide.trip.count
  br i1 %exitcond.not, label %._crit_edge, label %13, !llvm.loop !19

._crit_edge:                                      ; preds = %13, %8
  ret void
}